; ModuleID = 'source-C-CXX/11/642.cpp'
source_filename = "source-C-CXX/11/642.cpp"
target datalayout = "e-m:e-p270:32:32-p271:32:32-p272:64:64-i64:64-f80:128-n8:16:32:64-S128"
target triple = "x86_64-pc-linux-gnu"

%"class.std::ios_base::Init" = type { i8 }
%"class.std::basic_istream" = type { i32 (...)**, i64, %"class.std::basic_ios" }
%"class.std::basic_ios" = type { %"class.std::ios_base", %"class.std::basic_ostream"*, i8, i8, %"class.std::basic_streambuf"*, %"class.std::ctype"*, %"class.std::num_put"*, %"class.std::num_get"* }
%"class.std::ios_base" = type { i32 (...)**, i64, i64, i32, i32, i32, %"struct.std::ios_base::_Callback_list"*, %"struct.std::ios_base::_Words", [8 x %"struct.std::ios_base::_Words"], i32, %"struct.std::ios_base::_Words"*, %"class.std::locale" }
%"struct.std::ios_base::_Callback_list" = type { %"struct.std::ios_base::_Callback_list"*, void (i32, %"class.std::ios_base"*, i32)*, i32, i32 }
%"struct.std::ios_base::_Words" = type { i8*, i64 }
%"class.std::locale" = type { %"class.std::locale::_Impl"* }
%"class.std::locale::_Impl" = type { i32, %"class.std::locale::facet"**, i64, %"class.std::locale::facet"**, i8** }
%"class.std::locale::facet" = type <{ i32 (...)**, i32, [4 x i8] }>
%"class.std::basic_ostream" = type { i32 (...)**, %"class.std::basic_ios" }
%"class.std::basic_streambuf" = type { i32 (...)**, i8*, i8*, i8*, i8*, i8*, i8*, %"class.std::locale" }
%"class.std::ctype" = type <{ %"class.std::locale::facet.base", [4 x i8], %struct.__locale_struct*, i8, [7 x i8], i32*, i32*, i16*, i8, [256 x i8], [256 x i8], i8, [6 x i8] }>
%"class.std::locale::facet.base" = type <{ i32 (...)**, i32 }>
%struct.__locale_struct = type { [13 x %struct.__locale_data*], i16*, i32*, i32*, [13 x i8*] }
%struct.__locale_data = type opaque
%"class.std::num_put" = type { %"class.std::locale::facet.base", [4 x i8] }
%"class.std::num_get" = type { %"class.std::locale::facet.base", [4 x i8] }

@_ZStL8__ioinit = internal global %"class.std::ios_base::Init" zeroinitializer, align 1
@__dso_handle = external hidden global i8
@_ZSt3cin = external global %"class.std::basic_istream", align 8
@_ZSt4cout = external global %"class.std::basic_ostream", align 8
@llvm.global_ctors = appending global [1 x { i32, void ()*, i8* }] [{ i32, void ()*, i8* } { i32 65535, void ()* @_GLOBAL__sub_I_642.cpp, i8* null }]

declare void @_ZNSt8ios_base4InitC1Ev(%"class.std::ios_base::Init"* nonnull align 1 dereferenceable(1)) unnamed_addr #0

; Function Attrs: nounwind
declare void @_ZNSt8ios_base4InitD1Ev(%"class.std::ios_base::Init"* nonnull align 1 dereferenceable(1)) unnamed_addr #1

; Function Attrs: nofree nounwind
declare i32 @__cxa_atexit(void (i8*)*, i8*, i8*) local_unnamed_addr #2

; Function Attrs: mustprogress norecurse sspstrong uwtable
define dso_local i32 @main() local_unnamed_addr #3 {
  %1 = alloca [17 x i32], align 16
  %2 = bitcast [17 x i32]* %1 to i8*
  call void @llvm.lifetime.start.p0i8(i64 68, i8* nonnull %2) #7
  %3 = getelementptr inbounds [17 x i32], [17 x i32]* %1, i64 0, i64 1
  %4 = call nonnull align 8 dereferenceable(16) %"class.std::basic_istream"* @_ZNSirsERi(%"class.std::basic_istream"* nonnull align 8 dereferenceable(16) @_ZSt3cin, i32* nonnull align 4 dereferenceable(4) %3)
  %5 = load i32, i32* %3, align 4, !tbaa !5
  %6 = icmp eq i32 %5, -1
  br i1 %6, label %125, label %7

7:                                                ; preds = %0, %14
  %8 = phi i64 [ %15, %14 ], [ 1, %0 ]
  %9 = add nuw nsw i64 %8, 1
  %10 = getelementptr inbounds [17 x i32], [17 x i32]* %1, i64 0, i64 %9
  %11 = call nonnull align 8 dereferenceable(16) %"class.std::basic_istream"* @_ZNSirsERi(%"class.std::basic_istream"* nonnull align 8 dereferenceable(16) @_ZSt3cin, i32* nonnull align 4 dereferenceable(4) %10)
  %12 = load i32, i32* %10, align 4, !tbaa !5
  %13 = icmp eq i32 %12, 0
  br i1 %13, label %16, label %14

14:                                               ; preds = %7, %118
  %15 = phi i64 [ %9, %7 ], [ 1, %118 ]
  br label %7, !llvm.loop !9

16:                                               ; preds = %7
  %17 = trunc i64 %8 to i32
  %18 = icmp ugt i32 %17, 1
  br i1 %18, label %22, label %90

19:                                               ; preds = %62
  br i1 %18, label %20, label %90

20:                                               ; preds = %19
  %21 = and i64 %8, 4294967295
  br label %66

22:                                               ; preds = %16, %62
  %23 = phi i32 [ %65, %62 ], [ 0, %16 ]
  %24 = phi i32 [ %63, %62 ], [ 1, %16 ]
  %25 = sub i32 %17, %23
  %26 = zext i32 %25 to i64
  %27 = add nsw i64 %26, -1
  %28 = icmp slt i32 %24, %17
  br i1 %28, label %29, label %62

29:                                               ; preds = %22
  %30 = load i32, i32* %3, align 4, !tbaa !5
  %31 = and i64 %27, 1
  %32 = icmp eq i32 %25, 2
  br i1 %32, label %51, label %33

33:                                               ; preds = %29
  %34 = and i64 %27, -2
  br label %35

35:                                               ; preds = %128, %33
  %36 = phi i32 [ %30, %33 ], [ %129, %128 ]
  %37 = phi i64 [ 1, %33 ], [ %47, %128 ]
  %38 = phi i64 [ %34, %33 ], [ %130, %128 ]
  %39 = add nuw nsw i64 %37, 1
  %40 = getelementptr inbounds [17 x i32], [17 x i32]* %1, i64 0, i64 %39
  %41 = load i32, i32* %40, align 4, !tbaa !5
  %42 = icmp sgt i32 %36, %41
  br i1 %42, label %43, label %45

43:                                               ; preds = %35
  %44 = getelementptr inbounds [17 x i32], [17 x i32]* %1, i64 0, i64 %37
  store i32 %41, i32* %44, align 4, !tbaa !5
  store i32 %36, i32* %40, align 4, !tbaa !5
  br label %45

45:                                               ; preds = %35, %43
  %46 = phi i32 [ %41, %35 ], [ %36, %43 ]
  %47 = add nuw nsw i64 %37, 2
  %48 = getelementptr inbounds [17 x i32], [17 x i32]* %1, i64 0, i64 %47
  %49 = load i32, i32* %48, align 4, !tbaa !5
  %50 = icmp sgt i32 %46, %49
  br i1 %50, label %126, label %128

51:                                               ; preds = %128, %29
  %52 = phi i32 [ %30, %29 ], [ %129, %128 ]
  %53 = phi i64 [ 1, %29 ], [ %47, %128 ]
  %54 = icmp eq i64 %31, 0
  br i1 %54, label %62, label %55

55:                                               ; preds = %51
  %56 = add nuw nsw i64 %53, 1
  %57 = getelementptr inbounds [17 x i32], [17 x i32]* %1, i64 0, i64 %56
  %58 = load i32, i32* %57, align 4, !tbaa !5
  %59 = icmp sgt i32 %52, %58
  br i1 %59, label %60, label %62

60:                                               ; preds = %55
  %61 = getelementptr inbounds [17 x i32], [17 x i32]* %1, i64 0, i64 %53
  store i32 %58, i32* %61, align 4, !tbaa !5
  store i32 %52, i32* %57, align 4, !tbaa !5
  br label %62

62:                                               ; preds = %51, %55, %60, %22
  %63 = add nuw nsw i32 %24, 1
  %64 = icmp eq i32 %63, %17
  %65 = add i32 %23, 1
  br i1 %64, label %19, label %22, !llvm.loop !11

66:                                               ; preds = %86, %20
  %67 = phi i64 [ 1, %20 ], [ %70, %86 ]
  %68 = phi i64 [ 2, %20 ], [ %88, %86 ]
  %69 = phi i32 [ 0, %20 ], [ %87, %86 ]
  %70 = add nuw nsw i64 %67, 1
  %71 = getelementptr inbounds [17 x i32], [17 x i32]* %1, i64 0, i64 %67
  %72 = load i32, i32* %71, align 4, !tbaa !5
  %73 = shl nsw i32 %72, 1
  br label %74

74:                                               ; preds = %81, %66
  %75 = phi i64 [ %83, %81 ], [ %68, %66 ]
  %76 = getelementptr inbounds [17 x i32], [17 x i32]* %1, i64 0, i64 %75
  %77 = load i32, i32* %76, align 4, !tbaa !5
  %78 = icmp eq i32 %73, %77
  br i1 %78, label %79, label %81

79:                                               ; preds = %74
  %80 = add nsw i32 %69, 1
  br label %86

81:                                               ; preds = %74
  %82 = icmp slt i32 %73, %77
  %83 = add nuw nsw i64 %75, 1
  %84 = icmp uge i64 %75, %21
  %85 = select i1 %82, i1 true, i1 %84
  br i1 %85, label %86, label %74, !llvm.loop !12

86:                                               ; preds = %81, %79
  %87 = phi i32 [ %80, %79 ], [ %69, %81 ]
  %88 = add nuw nsw i64 %68, 1
  %89 = icmp eq i64 %70, %21
  br i1 %89, label %90, label %66, !llvm.loop !13

90:                                               ; preds = %86, %16, %19
  %91 = phi i32 [ 0, %19 ], [ 0, %16 ], [ %87, %86 ]
  %92 = call nonnull align 8 dereferenceable(8) %"class.std::basic_ostream"* @_ZNSolsEi(%"class.std::basic_ostream"* nonnull align 8 dereferenceable(8) @_ZSt4cout, i32 %91)
  %93 = bitcast %"class.std::basic_ostream"* %92 to i8**
  %94 = load i8*, i8** %93, align 8, !tbaa !14
  %95 = getelementptr i8, i8* %94, i64 -24
  %96 = bitcast i8* %95 to i64*
  %97 = load i64, i64* %96, align 8
  %98 = bitcast %"class.std::basic_ostream"* %92 to i8*
  %99 = add nsw i64 %97, 240
  %100 = getelementptr inbounds i8, i8* %98, i64 %99
  %101 = bitcast i8* %100 to %"class.std::ctype"**
  %102 = load %"class.std::ctype"*, %"class.std::ctype"** %101, align 8, !tbaa !16
  %103 = icmp eq %"class.std::ctype"* %102, null
  br i1 %103, label %104, label %105

104:                                              ; preds = %90
  call void @_ZSt16__throw_bad_castv() #8
  unreachable

105:                                              ; preds = %90
  %106 = getelementptr inbounds %"class.std::ctype", %"class.std::ctype"* %102, i64 0, i32 8
  %107 = load i8, i8* %106, align 8, !tbaa !20
  %108 = icmp eq i8 %107, 0
  br i1 %108, label %112, label %109

109:                                              ; preds = %105
  %110 = getelementptr inbounds %"class.std::ctype", %"class.std::ctype"* %102, i64 0, i32 9, i64 10
  %111 = load i8, i8* %110, align 1, !tbaa !22
  br label %118

112:                                              ; preds = %105
  call void @_ZNKSt5ctypeIcE13_M_widen_initEv(%"class.std::ctype"* nonnull align 8 dereferenceable(570) %102)
  %113 = bitcast %"class.std::ctype"* %102 to i8 (%"class.std::ctype"*, i8)***
  %114 = load i8 (%"class.std::ctype"*, i8)**, i8 (%"class.std::ctype"*, i8)*** %113, align 8, !tbaa !14
  %115 = getelementptr inbounds i8 (%"class.std::ctype"*, i8)*, i8 (%"class.std::ctype"*, i8)** %114, i64 6
  %116 = load i8 (%"class.std::ctype"*, i8)*, i8 (%"class.std::ctype"*, i8)** %115, align 8
  %117 = call signext i8 %116(%"class.std::ctype"* nonnull align 8 dereferenceable(570) %102, i8 signext 10)
  br label %118

118:                                              ; preds = %109, %112
  %119 = phi i8 [ %111, %109 ], [ %117, %112 ]
  %120 = call nonnull align 8 dereferenceable(8) %"class.std::basic_ostream"* @_ZNSo3putEc(%"class.std::basic_ostream"* nonnull align 8 dereferenceable(8) %92, i8 signext %119)
  %121 = call nonnull align 8 dereferenceable(8) %"class.std::basic_ostream"* @_ZNSo5flushEv(%"class.std::basic_ostream"* nonnull align 8 dereferenceable(8) %120)
  %122 = call nonnull align 8 dereferenceable(16) %"class.std::basic_istream"* @_ZNSirsERi(%"class.std::basic_istream"* nonnull align 8 dereferenceable(16) @_ZSt3cin, i32* nonnull align 4 dereferenceable(4) %3)
  %123 = load i32, i32* %3, align 4, !tbaa !5
  %124 = icmp eq i32 %123, -1
  br i1 %124, label %125, label %14

125:                                              ; preds = %118, %0
  call void @llvm.lifetime.end.p0i8(i64 68, i8* nonnull %2) #7
  ret i32 0

126:                                              ; preds = %45
  %127 = getelementptr inbounds [17 x i32], [17 x i32]* %1, i64 0, i64 %39
  store i32 %49, i32* %127, align 4, !tbaa !5
  store i32 %46, i32* %48, align 4, !tbaa !5
  br label %128

128:                                              ; preds = %126, %45
  %129 = phi i32 [ %49, %45 ], [ %46, %126 ]
  %130 = add i64 %38, -2
  %131 = icmp eq i64 %130, 0
  br i1 %131, label %51, label %35, !llvm.loop !23
}

; Function Attrs: argmemonly mustprogress nofree nosync nounwind willreturn
declare void @llvm.lifetime.start.p0i8(i64 immarg, i8* nocapture) #4

declare nonnull align 8 dereferenceable(16) %"class.std::basic_istream"* @_ZNSirsERi(%"class.std::basic_istream"* nonnull align 8 dereferenceable(16), i32* nonnull align 4 dereferenceable(4)) local_unnamed_addr #0

declare nonnull align 8 dereferenceable(8) %"class.std::basic_ostream"* @_ZNSolsEi(%"class.std::basic_ostream"* nonnull align 8 dereferenceable(8), i32) local_unnamed_addr #0

; Function Attrs: argmemonly mustprogress nofree nosync nounwind willreturn
declare void @llvm.lifetime.end.p0i8(i64 immarg, i8* nocapture) #4

declare nonnull align 8 dereferenceable(8) %"class.std::basic_ostream"* @_ZNSo3putEc(%"class.std::basic_ostream"* nonnull align 8 dereferenceable(8), i8 signext) local_unnamed_addr #0

declare nonnull align 8 dereferenceable(8) %"class.std::basic_ostream"* @_ZNSo5flushEv(%"class.std::basic_ostream"* nonnull align 8 dereferenceable(8)) local_unnamed_addr #0

; Function Attrs: noreturn
declare void @_ZSt16__throw_bad_castv() local_unnamed_addr #5

declare void @_ZNKSt5ctypeIcE13_M_widen_initEv(%"class.std::ctype"* nonnull align 8 dereferenceable(570)) local_unnamed_addr #0

; Function Attrs: sspstrong uwtable
define internal void @_GLOBAL__sub_I_642.cpp() #6 section ".text.startup" {
  tail call void @_ZNSt8ios_base4InitC1Ev(%"class.std::ios_base::Init"* nonnull align 1 dereferenceable(1) @_ZStL8__ioinit)
  %1 = tail call i32 @__cxa_atexit(void (i8*)* bitcast (void (%"class.std::ios_base::Init"*)* @_ZNSt8ios_base4InitD1Ev to void (i8*)*), i8* getelementptr inbounds (%"class.std::ios_base::Init", %"class.std::ios_base::Init"* @_ZStL8__ioinit, i64 0, i32 0), i8* nonnull @__dso_handle) #7
  ret void
}


!llvm.module.flags = !{!0, !1, !2, !3}
!llvm.ident = !{!4}

!0 = !{i32 1, !"wchar_size", i32 4}
!1 = !{i32 7, !"PIC Level", i32 2}
!2 = !{i32 7, !"PIE Level", i32 2}
!3 = !{i32 7, !"uwtable", i32 1}
!4 = !{!"clang version 13.0.0"}
!5 = !{!6, !6, i64 0}
!6 = !{!"int", !7, i64 0}
!7 = !{!"omnipotent char", !8, i64 0}
!8 = !{!"Simple C++ TBAA"}
!9 = distinct !{!9, !10}
!10 = !{!"llvm.loop.mustprogress"}
!11 = distinct !{!11, !10}
!12 = distinct !{!12, !10}
!13 = distinct !{!13, !10}
!14 = !{!15, !15, i64 0}
!15 = !{!"vtable pointer", !8, i64 0}
!16 = !{!17, !18, i64 240}
!17 = !{!"_ZTSSt9basic_iosIcSt11char_traitsIcEE", !18, i64 216, !7, i64 224, !19, i64 225, !18, i64 232, !18, i64 240, !18, i64 248, !18, i64 256}
!18 = !{!"any pointer", !7, i64 0}
!19 = !{!"bool", !7, i64 0}
!20 = !{!21, !7, i64 56}
!21 = !{!"_ZTSSt5ctypeIcE", !18, i64 16, !19, i64 24, !18, i64 32, !18, i64 40, !18, i64 48, !7, i64 56, !7, i64 57, !7, i64 313, !7, i64 569}
!22 = !{!7, !7, i64 0}
!23 = distinct !{!23, !10}
